Certificate:
    Data:
        Version: 3 (0x2)
        Serial Number:
            54:02:4a:10:db:9a:d1:7f:2d:a8:36:d1:8e:e9:3d:11
    Signature Algorithm: sha256WithRSAEncryption
        Issuer: CN=amatista
        Validity
            Not Before: Aug 11 23:31:49 2020 GMT
            Not After : Aug 11 23:31:49 2021 GMT
        Subject: CN=2158547-cliente
        Subject Public Key Info:
            Public Key Algorithm: rsaEncryption
                Public-Key: (2048 bit)
                Modulus:
                    00:e8:f5:78:79:84:4c:21:78:fb:cb:e3:12:28:bf:
                    6d:67:a6:99:92:82:8e:d7:38:8a:61:91:57:e1:ac:
                    b5:fc:5f:bc:a0:43:af:93:51:c6:32:bf:74:b9:89:
                    f1:5d:97:6e:ab:66:a8:49:6e:bc:89:76:97:2e:83:
                    6d:2f:dc:cf:2a:d8:ca:aa:b2:5c:1b:4d:c7:82:0a:
                    ed:69:34:e9:97:f8:a5:9b:7a:f5:4d:e1:49:6e:54:
                    f4:b4:75:fb:27:9f:ff:0f:28:59:e5:8c:1d:67:93:
                    f7:e2:31:0f:1b:51:ef:e2:42:65:e3:b0:4d:7d:40:
                    20:f1:2a:d4:89:6b:80:ae:80:c7:3b:db:f6:c9:0f:
                    c3:97:55:49:76:de:58:4d:64:44:39:8f:b7:66:16:
                    27:9e:5c:12:55:2a:96:46:aa:ba:5c:d2:6d:83:97:
                    f0:d1:cb:a0:01:c1:e2:6e:98:c5:d8:d1:43:86:b1:
                    58:12:34:65:14:70:f3:2a:c8:d8:76:fa:2d:77:4a:
                    02:5f:7e:13:fa:3b:7e:13:f6:f7:5b:6b:22:ed:e6:
                    a9:d5:21:a3:a7:33:18:25:92:b8:81:3f:8f:cc:81:
                    b6:fb:6e:cf:59:2b:05:97:eb:04:7c:25:57:98:de:
                    77:f2:88:db:1b:77:0c:59:a8:8f:09:7a:25:a0:28:
                    1c:8b
                Exponent: 65537 (0x10001)
        X509v3 extensions:
            X509v3 Basic Constraints: 
                CA:FALSE
            X509v3 Subject Key Identifier: 
                48:89:BE:F3:9E:77:D9:8D:7B:97:90:85:D0:64:07:FF:20:9A:4C:09
            X509v3 Authority Key Identifier: 
                keyid:22:03:F5:F7:9E:5B:61:46:4B:45:5D:00:B3:65:AB:FC:E1:B6:FC:67
                DirName:/CN=amatista
                serial:FC:F6:94:90:FC:2F:59:8B

            X509v3 Extended Key Usage: 
                TLS Web Client Authentication
            X509v3 Key Usage: 
                Digital Signature
    Signature Algorithm: sha256WithRSAEncryption
         b8:2e:3e:b3:d5:f8:dd:83:74:ba:ed:f5:93:be:25:48:29:74:
         d6:ea:cd:b1:96:5c:d5:60:91:6e:66:61:c2:ba:33:64:d1:22:
         db:89:bc:fd:3b:6d:8c:6c:96:74:42:41:3d:f2:ce:d6:73:d2:
         f8:55:c6:33:9b:af:da:35:8e:ba:c1:47:8b:56:f9:49:bb:37:
         94:34:64:3c:10:3e:9e:2c:e1:68:d4:1b:e5:4e:01:3b:c8:6f:
         ad:0a:45:ef:8a:83:69:5a:ba:a7:20:d2:d3:ce:be:24:c5:98:
         f0:60:47:95:91:77:d4:9e:9b:9f:8a:4b:b2:a7:6f:30:92:ee:
         25:79:65:58:e1:79:a4:0e:cf:96:83:e7:83:5a:40:03:e6:95:
         2a:44:cf:8f:f2:7d:d6:a2:fb:df:85:fa:96:bf:8f:8c:68:a9:
         e8:ab:48:a6:79:ab:9b:7f:2b:b8:b4:15:99:80:b6:48:d0:2c:
         4b:b5:ef:41:de:13:84:a7:0c:8b:09:04:0f:7e:7a:79:dd:87:
         89:62:09:13:e9:e0:87:41:a4:d7:0b:f2:70:28:c1:ec:40:f0:
         fc:fc:ed:03:e8:2d:95:86:9c:7e:07:da:3e:7e:22:46:dc:ef:
         5d:10:e3:17:26:9e:0e:77:86:55:c3:44:b3:c6:ac:16:a4:2c:
         01:27:0d:73
-----BEGIN CERTIFICATE-----
MIIDTDCCAjSgAwIBAgIQVAJKENua0X8tqDbRjuk9ETANBgkqhkiG9w0BAQsFADAT
MREwDwYDVQQDDAhhbWF0aXN0YTAeFw0yMDA4MTEyMzMxNDlaFw0yMTA4MTEyMzMx
NDlaMBoxGDAWBgNVBAMMDzIxNTg1NDctY2xpZW50ZTCCASIwDQYJKoZIhvcNAQEB
BQADggEPADCCAQoCggEBAOj1eHmETCF4+8vjEii/bWemmZKCjtc4imGRV+Gstfxf
vKBDr5NRxjK/dLmJ8V2XbqtmqEluvIl2ly6DbS/czyrYyqqyXBtNx4IK7Wk06Zf4
pZt69U3hSW5U9LR1+yef/w8oWeWMHWeT9+IxDxtR7+JCZeOwTX1AIPEq1IlrgK6A
xzvb9skPw5dVSXbeWE1kRDmPt2YWJ55cElUqlkaqulzSbYOX8NHLoAHB4m6YxdjR
Q4axWBI0ZRRw8yrI2Hb6LXdKAl9+E/o7fhP291trIu3mqdUho6czGCWSuIE/j8yB
tvtuz1krBZfrBHwlV5jed/KI2xt3DFmojwl6JaAoHIsCAwEAAaOBlDCBkTAJBgNV
HRMEAjAAMB0GA1UdDgQWBBRIib7znnfZjXuXkIXQZAf/IJpMCTBDBgNVHSMEPDA6
gBQiA/X3nlthRktFXQCzZav84bb8Z6EXpBUwEzERMA8GA1UEAwwIYW1hdGlzdGGC
CQD89pSQ/C9ZizATBgNVHSUEDDAKBggrBgEFBQcDAjALBgNVHQ8EBAMCB4AwDQYJ
KoZIhvcNAQELBQADggEBALguPrPV+N2DdLrt9ZO+JUgpdNbqzbGWXNVgkW5mYcK6
M2TRItuJvP07bYxslnRCQT3yztZz0vhVxjObr9o1jrrBR4tW+Um7N5Q0ZDwQPp4s
4WjUG+VOATvIb60KRe+Kg2lauqcg0tPOviTFmPBgR5WRd9Sem5+KS7KnbzCS7iV5
ZVjheaQOz5aD54NaQAPmlSpEz4/yfdai+9+F+pa/j4xoqeirSKZ5q5t/K7i0FZmA
tkjQLEu170HeE4SnDIsJBA9+enndh4liCRPp4IdBpNcL8nAowexA8Pz87QPoLZWG
nH4H2j5+Ikbc710Q4xcmng53hlXDRLPGrBakLAEnDXM=
-----END CERTIFICATE-----
